; Function Attrs: nounwind sspstrong uwtable
define dso_local void @ruby_incpush(ptr noundef %0) local_unnamed_addr #0 {
  %2 = load ptr, ptr @ruby_current_vm_ptr, align 8, !tbaa !12
  %3 = getelementptr inbounds nuw i8, ptr %2, i64 576
  %4 = load i64, ptr %3, align 8, !tbaa !15
  %5 = icmp eq ptr %0, null
  br i1 %5, label %ruby_push_include.exit, label %.preheader28.i

.preheader28.i:                                   ; preds = %1
  %6 = load i8, ptr %0, align 1, !tbaa !7
  %.not31.i = icmp eq i8 %6, 0
  br i1 %.not31.i, label %ruby_push_include.exit, label %.preheader27.i

.preheader27.i:                                   ; preds = %.preheader28.i, %.preheader27.i.backedge
  %7 = phi i8 [ %.be, %.preheader27.i.backedge ], [ %6, %.preheader28.i ]
  %.1.i = phi ptr [ %.1.i.be, %.preheader27.i.backedge ], [ %0, %.preheader28.i ]
  switch i8 %7, label %.preheader.i [
    i8 58, label %8
    i8 0, label %ruby_push_include.exit
  ]

8:                                                ; preds = %.preheader27.i
  %9 = getelementptr i8, ptr %.1.i, i64 1
  %.pr.i = load i8, ptr %9, align 1, !tbaa !7
  br label %.preheader27.i.backedge

.preheader27.i.backedge:                          ; preds = %8, %15
  %.be = phi i8 [ %.pr.i, %8 ], [ %23, %15 ]
  %.1.i.be = phi ptr [ %9, %8 ], [ %.018.i, %15 ]
  br label %.preheader27.i, !llvm.loop !40

.preheader.i:                                     ; preds = %.preheader27.i, %rb_char_next.exit.i
  %10 = phi i8 [ %.pre.i, %rb_char_next.exit.i ], [ %7, %.preheader27.i ]
  %.018.i = phi ptr [ %14, %rb_char_next.exit.i ], [ %.1.i, %.preheader27.i ]
  switch i8 %10, label %rb_char_next.exit.i [
    i8 0, label %15
    i8 58, label %15
  ]

rb_char_next.exit.i:                              ; preds = %.preheader.i
  %11 = tail call i32 @mblen(ptr noundef nonnull %.018.i, i64 noundef 2147483647) #25
  %12 = tail call i32 @llvm.smax.i32(i32 %11, i32 1)
  %13 = zext nneg i32 %12 to i64
  %14 = getelementptr i8, ptr %.018.i, i64 %13
  %.pre.i = load i8, ptr %14, align 1, !tbaa !7
  br label %.preheader.i, !llvm.loop !41

15:                                               ; preds = %.preheader.i, %.preheader.i
  %16 = ptrtoint ptr %.018.i to i64
  %17 = ptrtoint ptr %.1.i to i64
  %18 = sub i64 %16, %17
  %19 = tail call i64 @rb_str_new(ptr noundef nonnull %.1.i, i64 noundef %18) #25
  %20 = tail call ptr @rb_locale_encoding() #25
  %21 = tail call i64 @rb_enc_associate(i64 noundef %19, ptr noundef %20) #25
  %22 = tail call i64 @rb_ary_push(i64 noundef %4, i64 noundef %19) #25
  %23 = load i8, ptr %.018.i, align 1, !tbaa !7
  %.not.i = icmp eq i8 %23, 0
  br i1 %.not.i, label %ruby_push_include.exit, label %.preheader27.i.backedge

ruby_push_include.exit:                           ; preds = %15, %.preheader27.i, %1, %.preheader28.i
  ret void
}